target datalayout = "e-m:e-p270:32:32-p271:32:32-p272:64:64-i64:64-i128:128-f80:128-n8:16:32:64-S128"
target triple = "x86_64-pc-linux-gnu"

@G_ordering = external global ptr, align 8
@N_ordering = external global ptr, align 8
@.str.13 = private unnamed_addr constant [4 x i8] c"out\00", align 1
@.str.14 = private unnamed_addr constant [3 x i8] c"in\00", align 1
@.str.15 = private unnamed_addr constant [31 x i8] c"ordering '%s' not recognized.\0A\00", align 1
@.str.16 = private unnamed_addr constant [45 x i8] c"ordering '%s' not recognized for node '%s'.\0A\00", align 1

; Function Attrs: nounwind uwtable
define internal void @do_ordering_for_nodes(ptr noundef %0) #0 {
  %2 = alloca ptr, align 8
  %3 = alloca ptr, align 8
  %4 = alloca ptr, align 8
  store ptr %0, ptr %2, align 8, !tbaa !3
  call void @llvm.lifetime.start.p0(i64 8, ptr %3) #15
  call void @llvm.lifetime.start.p0(i64 8, ptr %4) #15
  %5 = load ptr, ptr %2, align 8, !tbaa !3
  %6 = call ptr @agfstnode(ptr noundef %5)
  store ptr %6, ptr %3, align 8, !tbaa !41
  br label %7

7:                                                ; preds = %40, %1
  %8 = load ptr, ptr %3, align 8, !tbaa !41
  %9 = icmp ne ptr %8, null
  br i1 %9, label %10, label %44

10:                                               ; preds = %7
  %11 = load ptr, ptr %3, align 8, !tbaa !41
  %12 = load ptr, ptr @N_ordering, align 8, !tbaa !168
  %13 = call ptr @late_string(ptr noundef %11, ptr noundef %12, ptr noundef null)
  store ptr %13, ptr %4, align 8, !tbaa !64
  %14 = icmp ne ptr %13, null
  br i1 %14, label %15, label %39

15:                                               ; preds = %10
  %16 = load ptr, ptr %4, align 8, !tbaa !64
  %17 = call zeroext i1 @streq(ptr noundef %16, ptr noundef @.str.13)
  br i1 %17, label %18, label %21

18:                                               ; preds = %15
  %19 = load ptr, ptr %2, align 8, !tbaa !3
  %20 = load ptr, ptr %3, align 8, !tbaa !41
  call void @do_ordering_node(ptr noundef %19, ptr noundef %20, i1 noundef zeroext true)
  br label %38

21:                                               ; preds = %15
  %22 = load ptr, ptr %4, align 8, !tbaa !64
  %23 = call zeroext i1 @streq(ptr noundef %22, ptr noundef @.str.14)
  br i1 %23, label %24, label %27

24:                                               ; preds = %21
  %25 = load ptr, ptr %2, align 8, !tbaa !3
  %26 = load ptr, ptr %3, align 8, !tbaa !41
  call void @do_ordering_node(ptr noundef %25, ptr noundef %26, i1 noundef zeroext false)
  br label %37

27:                                               ; preds = %21
  %28 = load ptr, ptr %4, align 8, !tbaa !64
  %29 = getelementptr inbounds i8, ptr %28, i64 0
  %30 = load i8, ptr %29, align 1, !tbaa !76
  %31 = icmp ne i8 %30, 0
  br i1 %31, label %32, label %36

32:                                               ; preds = %27
  %33 = load ptr, ptr %4, align 8, !tbaa !64
  %34 = load ptr, ptr %3, align 8, !tbaa !41
  %35 = call ptr @agnameof(ptr noundef %34)
  call void (ptr, ...) @agerrorf(ptr noundef @.str.16, ptr noundef %33, ptr noundef %35)
  br label %36

36:                                               ; preds = %32, %27
  br label %37

37:                                               ; preds = %36, %24
  br label %38

38:                                               ; preds = %37, %18
  br label %39

39:                                               ; preds = %38, %10
  br label %40

40:                                               ; preds = %39
  %41 = load ptr, ptr %2, align 8, !tbaa !3
  %42 = load ptr, ptr %3, align 8, !tbaa !41
  %43 = call ptr @agnxtnode(ptr noundef %41, ptr noundef %42)
  store ptr %43, ptr %3, align 8, !tbaa !41
  br label %7, !llvm.loop !189

44:                                               ; preds = %7
  call void @llvm.lifetime.end.p0(i64 8, ptr %4) #15
  call void @llvm.lifetime.end.p0(i64 8, ptr %3) #15
  ret void
}

; Function Attrs: nounwind uwtable
define internal void @do_ordering(ptr noundef %0, i1 noundef zeroext %1) #0 {
  %3 = alloca ptr, align 8
  %4 = alloca i8, align 1
  %5 = alloca ptr, align 8
  store ptr %0, ptr %3, align 8, !tbaa !3
  %6 = zext i1 %1 to i8
  store i8 %6, ptr %4, align 1, !tbaa !65
  call void @llvm.lifetime.start.p0(i64 8, ptr %5) #15
  %7 = load ptr, ptr %3, align 8, !tbaa !3
  %8 = call ptr @agfstnode(ptr noundef %7)
  store ptr %8, ptr %5, align 8, !tbaa !41
  br label %9

9:                                                ; preds = %17, %2
  %10 = load ptr, ptr %5, align 8, !tbaa !41
  %11 = icmp ne ptr %10, null
  br i1 %11, label %12, label %21

12:                                               ; preds = %9
  %13 = load ptr, ptr %3, align 8, !tbaa !3
  %14 = load ptr, ptr %5, align 8, !tbaa !41
  %15 = load i8, ptr %4, align 1, !tbaa !65, !range !68, !noundef !69
  %16 = trunc i8 %15 to i1
  call void @do_ordering_node(ptr noundef %13, ptr noundef %14, i1 noundef zeroext %16)
  br label %17

17:                                               ; preds = %12
  %18 = load ptr, ptr %3, align 8, !tbaa !3
  %19 = load ptr, ptr %5, align 8, !tbaa !41
  %20 = call ptr @agnxtnode(ptr noundef %18, ptr noundef %19)
  store ptr %20, ptr %5, align 8, !tbaa !41
  br label %9, !llvm.loop !188

21:                                               ; preds = %9
  call void @llvm.lifetime.end.p0(i64 8, ptr %5) #15
  ret void
}

; Function Attrs: inlinehint nounwind uwtable
define internal zeroext i1 @streq(ptr noundef %0, ptr noundef %1) #4 {
  %3 = alloca ptr, align 8
  %4 = alloca ptr, align 8
  store ptr %0, ptr %3, align 8, !tbaa !64
  store ptr %1, ptr %4, align 8, !tbaa !64
  %5 = load ptr, ptr %3, align 8, !tbaa !64
  %6 = load ptr, ptr %4, align 8, !tbaa !64
  %7 = call i32 @strcmp(ptr noundef %5, ptr noundef %6) #20
  %8 = icmp eq i32 %7, 0
  ret i1 %8
}

; Function Attrs: nounwind uwtable
define internal void @ordered_edges(ptr noundef %0) #0 {
  %2 = alloca ptr, align 8
  %3 = alloca ptr, align 8
  %4 = alloca i32, align 4
  %5 = alloca ptr, align 8
  store ptr %0, ptr %2, align 8, !tbaa !3
  call void @llvm.lifetime.start.p0(i64 8, ptr %3) #15
  %6 = load ptr, ptr @G_ordering, align 8, !tbaa !168
  %7 = icmp ne ptr %6, null
  br i1 %7, label %12, label %8

8:                                                ; preds = %1
  %9 = load ptr, ptr @N_ordering, align 8, !tbaa !168
  %10 = icmp ne ptr %9, null
  br i1 %10, label %12, label %11

11:                                               ; preds = %8
  store i32 1, ptr %4, align 4
  br label %59

12:                                               ; preds = %8, %1
  %13 = load ptr, ptr %2, align 8, !tbaa !3
  %14 = load ptr, ptr @G_ordering, align 8, !tbaa !168
  %15 = call ptr @late_string(ptr noundef %13, ptr noundef %14, ptr noundef null)
  store ptr %15, ptr %3, align 8, !tbaa !64
  %16 = icmp ne ptr %15, null
  br i1 %16, label %17, label %37

17:                                               ; preds = %12
  %18 = load ptr, ptr %3, align 8, !tbaa !64
  %19 = call zeroext i1 @streq(ptr noundef %18, ptr noundef @.str.13)
  br i1 %19, label %20, label %22

20:                                               ; preds = %17
  %21 = load ptr, ptr %2, align 8, !tbaa !3
  call void @do_ordering(ptr noundef %21, i1 noundef zeroext true)
  br label %36

22:                                               ; preds = %17
  %23 = load ptr, ptr %3, align 8, !tbaa !64
  %24 = call zeroext i1 @streq(ptr noundef %23, ptr noundef @.str.14)
  br i1 %24, label %25, label %27

25:                                               ; preds = %22
  %26 = load ptr, ptr %2, align 8, !tbaa !3
  call void @do_ordering(ptr noundef %26, i1 noundef zeroext false)
  br label %35

27:                                               ; preds = %22
  %28 = load ptr, ptr %3, align 8, !tbaa !64
  %29 = getelementptr inbounds i8, ptr %28, i64 0
  %30 = load i8, ptr %29, align 1, !tbaa !76
  %31 = icmp ne i8 %30, 0
  br i1 %31, label %32, label %34

32:                                               ; preds = %27
  %33 = load ptr, ptr %3, align 8, !tbaa !64
  call void (ptr, ...) @agerrorf(ptr noundef @.str.15, ptr noundef %33)
  br label %34

34:                                               ; preds = %32, %27
  br label %35

35:                                               ; preds = %34, %25
  br label %36

36:                                               ; preds = %35, %20
  br label %58

37:                                               ; preds = %12
  call void @llvm.lifetime.start.p0(i64 8, ptr %5) #15
  %38 = load ptr, ptr %2, align 8, !tbaa !3
  %39 = call ptr @agfstsubg(ptr noundef %38)
  store ptr %39, ptr %5, align 8, !tbaa !3
  br label %40

40:                                               ; preds = %49, %37
  %41 = load ptr, ptr %5, align 8, !tbaa !3
  %42 = icmp ne ptr %41, null
  br i1 %42, label %43, label %52

43:                                               ; preds = %40
  %44 = load ptr, ptr %5, align 8, !tbaa !3
  %45 = call zeroext i1 @is_cluster(ptr noundef %44)
  br i1 %45, label %48, label %46

46:                                               ; preds = %43
  %47 = load ptr, ptr %5, align 8, !tbaa !3
  call void @ordered_edges(ptr noundef %47)
  br label %48

48:                                               ; preds = %46, %43
  br label %49

49:                                               ; preds = %48
  %50 = load ptr, ptr %5, align 8, !tbaa !3
  %51 = call ptr @agnxtsubg(ptr noundef %50)
  store ptr %51, ptr %5, align 8, !tbaa !3
  br label %40, !llvm.loop !170

52:                                               ; preds = %40
  %53 = load ptr, ptr @N_ordering, align 8, !tbaa !168
  %54 = icmp ne ptr %53, null
  br i1 %54, label %55, label %57

55:                                               ; preds = %52
  %56 = load ptr, ptr %2, align 8, !tbaa !3
  call void @do_ordering_for_nodes(ptr noundef %56)
  br label %57

57:                                               ; preds = %55, %52
  call void @llvm.lifetime.end.p0(i64 8, ptr %5) #15
  br label %58

58:                                               ; preds = %57, %36
  store i32 0, ptr %4, align 4
  br label %59

59:                                               ; preds = %58, %11
  call void @llvm.lifetime.end.p0(i64 8, ptr %3) #15
  %60 = load i32, ptr %4, align 4
  switch i32 %60, label %62 [
    i32 0, label %61
    i32 1, label %61
  ]

61:                                               ; preds = %59, %59
  ret void

62:                                               ; preds = %59
  unreachable
}