; Function Attrs: nounwind uwtable
define internal fastcc void @ordered_edges(ptr noundef %0) unnamed_addr #0 {
  %2 = load ptr, ptr @G_ordering, align 8, !tbaa !205
  %3 = icmp ne ptr %2, null
  %4 = load ptr, ptr @N_ordering, align 8
  %5 = icmp ne ptr %4, null
  %or.cond = select i1 %3, i1 true, i1 %5
  br i1 %or.cond, label %6, label %do_ordering.exit

6:                                                ; preds = %1
  %7 = tail call ptr @late_string(ptr noundef %0, ptr noundef %2, ptr noundef null) #23
  %.not = icmp eq ptr %7, null
  br i1 %.not, label %25, label %8

8:                                                ; preds = %6
  %9 = tail call i32 @strcmp(ptr noundef nonnull readonly dereferenceable(1) %7, ptr noundef nonnull dereferenceable(4) @.str.13) #29
  %10 = icmp eq i32 %9, 0
  br i1 %10, label %11, label %sub_0

11:                                               ; preds = %8
  %12 = tail call ptr @agfstnode(ptr noundef %0) #23
  %.not6.i = icmp eq ptr %12, null
  br i1 %.not6.i, label %do_ordering.exit, label %.lr.ph.i

.lr.ph.i:                                         ; preds = %11, %.lr.ph.i
  %.07.i = phi ptr [ %14, %.lr.ph.i ], [ %12, %11 ]
  %13 = getelementptr i8, ptr %.07.i, i64 16
  %.0.val.i = load ptr, ptr %13, align 8, !tbaa !3
  tail call fastcc void @do_ordering_node(ptr noundef %0, ptr %.0.val.i, i1 noundef zeroext true)
  %14 = tail call ptr @agnxtnode(ptr noundef %0, ptr noundef nonnull %.07.i) #23
  %.not.i = icmp eq ptr %14, null
  br i1 %.not.i, label %do_ordering.exit, label %.lr.ph.i, !llvm.loop !207

sub_0:                                            ; preds = %8
  %15 = load i8, ptr %7, align 1
  switch i8 %15, label %.thread36 [
    i8 105, label %sub_1
    i8 0, label %do_ordering.exit
  ]

sub_1:                                            ; preds = %sub_0
  %16 = getelementptr inbounds nuw i8, ptr %7, i64 1
  %17 = load i8, ptr %16, align 1
  %.not32 = icmp eq i8 %17, 110
  br i1 %.not32, label %.tail, label %.thread36

.tail:                                            ; preds = %sub_1
  %18 = getelementptr inbounds nuw i8, ptr %7, i64 2
  %19 = load i8, ptr %18, align 1
  %20 = icmp eq i8 %19, 0
  br i1 %20, label %21, label %.thread36

21:                                               ; preds = %.tail
  %22 = tail call ptr @agfstnode(ptr noundef %0) #23
  %.not6.i18 = icmp eq ptr %22, null
  br i1 %.not6.i18, label %do_ordering.exit, label %.lr.ph.i19

.lr.ph.i19:                                       ; preds = %21, %.lr.ph.i19
  %.07.i20 = phi ptr [ %24, %.lr.ph.i19 ], [ %22, %21 ]
  %23 = getelementptr i8, ptr %.07.i20, i64 16
  %.0.val.i21 = load ptr, ptr %23, align 8, !tbaa !3
  tail call fastcc void @do_ordering_node(ptr noundef %0, ptr %.0.val.i21, i1 noundef zeroext false)
  %24 = tail call ptr @agnxtnode(ptr noundef %0, ptr noundef nonnull %.07.i20) #23
  %.not.i22 = icmp eq ptr %24, null
  br i1 %.not.i22, label %do_ordering.exit, label %.lr.ph.i19, !llvm.loop !207

.thread36:                                        ; preds = %sub_0, %.tail, %sub_1
  tail call void (ptr, ...) @agerrorf(ptr noundef nonnull @.str.15, ptr noundef nonnull %7) #23
  br label %do_ordering.exit

25:                                               ; preds = %6
  %26 = tail call ptr @agfstsubg(ptr noundef %0) #23
  %.not1529 = icmp eq ptr %26, null
  br i1 %.not1529, label %._crit_edge, label %.lr.ph

.lr.ph:                                           ; preds = %25, %29
  %.030 = phi ptr [ %30, %29 ], [ %26, %25 ]
  %27 = tail call zeroext i1 @is_cluster(ptr noundef nonnull %.030) #23
  br i1 %27, label %29, label %28

28:                                               ; preds = %.lr.ph
  tail call fastcc void @ordered_edges(ptr noundef nonnull %.030)
  br label %29

29:                                               ; preds = %.lr.ph, %28
  %30 = tail call ptr @agnxtsubg(ptr noundef nonnull %.030) #23
  %.not15 = icmp eq ptr %30, null
  br i1 %.not15, label %._crit_edge, label %.lr.ph, !llvm.loop !208

._crit_edge:                                      ; preds = %29, %25
  %31 = load ptr, ptr @N_ordering, align 8, !tbaa !205
  %.not16 = icmp eq ptr %31, null
  br i1 %.not16, label %do_ordering.exit, label %32

32:                                               ; preds = %._crit_edge
  %33 = tail call ptr @agfstnode(ptr noundef %0) #23
  %.not18.i = icmp eq ptr %33, null
  br i1 %.not18.i, label %do_ordering.exit, label %.lr.ph.i24

.lr.ph.i24:                                       ; preds = %32, %50
  %.019.i = phi ptr [ %51, %50 ], [ %33, %32 ]
  %34 = load ptr, ptr @N_ordering, align 8, !tbaa !205
  %35 = tail call ptr @late_string(ptr noundef nonnull %.019.i, ptr noundef %34, ptr noundef null) #23
  %.not15.i = icmp eq ptr %35, null
  br i1 %.not15.i, label %50, label %36

36:                                               ; preds = %.lr.ph.i24
  %37 = tail call i32 @strcmp(ptr noundef nonnull readonly dereferenceable(1) %35, ptr noundef nonnull dereferenceable(4) @.str.13) #29
  %38 = icmp eq i32 %37, 0
  br i1 %38, label %39, label %sub_0.i

39:                                               ; preds = %36
  %40 = getelementptr i8, ptr %.019.i, i64 16
  %.0.val.i26 = load ptr, ptr %40, align 8, !tbaa !3
  tail call fastcc void @do_ordering_node(ptr noundef %0, ptr %.0.val.i26, i1 noundef zeroext true)
  br label %50

sub_0.i:                                          ; preds = %36
  %41 = load i8, ptr %35, align 1
  switch i8 %41, label %.thread23.i [
    i8 105, label %sub_1.i
    i8 0, label %50
  ]

sub_1.i:                                          ; preds = %sub_0.i
  %42 = getelementptr inbounds nuw i8, ptr %35, i64 1
  %43 = load i8, ptr %42, align 1
  %.not21.i = icmp eq i8 %43, 110
  br i1 %.not21.i, label %.tail.i, label %.thread23.i

.tail.i:                                          ; preds = %sub_1.i
  %44 = getelementptr inbounds nuw i8, ptr %35, i64 2
  %45 = load i8, ptr %44, align 1
  %46 = icmp eq i8 %45, 0
  br i1 %46, label %47, label %.thread23.i

47:                                               ; preds = %.tail.i
  %48 = getelementptr i8, ptr %.019.i, i64 16
  %.0.val17.i = load ptr, ptr %48, align 8, !tbaa !3
  tail call fastcc void @do_ordering_node(ptr noundef %0, ptr %.0.val17.i, i1 noundef zeroext false)
  br label %50

.thread23.i:                                      ; preds = %.tail.i, %sub_1.i, %sub_0.i
  %49 = tail call ptr @agnameof(ptr noundef nonnull %.019.i) #23
  tail call void (ptr, ...) @agerrorf(ptr noundef nonnull @.str.16, ptr noundef nonnull %35, ptr noundef %49) #23
  br label %50

50:                                               ; preds = %.thread23.i, %47, %sub_0.i, %39, %.lr.ph.i24
  %51 = tail call ptr @agnxtnode(ptr noundef %0, ptr noundef nonnull %.019.i) #23
  %.not.i25 = icmp eq ptr %51, null
  br i1 %.not.i25, label %do_ordering.exit, label %.lr.ph.i24, !llvm.loop !209

do_ordering.exit:                                 ; preds = %.lr.ph.i19, %.lr.ph.i, %50, %sub_0, %32, %21, %11, %.thread36, %._crit_edge, %1
  ret void
}